target datalayout = "e-m:e-p270:32:32-p271:32:32-p272:64:64-i64:64-i128:128-f80:128-n8:16:32:64-S128"
target triple = "x86_64-unknown-linux-gnu"

%class.symbol = type { ptr }
%"class.smt::setup" = type <{ ptr, ptr, ptr, %class.symbol, i8, [7 x i8] }>
%struct.static_features = type { ptr, %class.arith_util, %class.bv_util, %class.array_util, %class.fpa_util, %class.seq_util, i32, i32, i32, i32, i32, %class.ast_mark, %class.ast_mark, i8, i32, i32, i32, i32, i32, i32, i32, i32, i32, i32, i32, i32, i32, i32, i32, i32, i32, i32, i32, i32, i32, i32, i32, i32, i32, i32, i32, i32, i8, i8, i8, i8, i8, i8, i8, i8, i8, i8, %class.rational, i32, i32, i32, i32, i32, i32, i32, i32, i32, %class.svector.4, %class.svector.4, %class.svector.4, %class.svector.4, %class.svector.4, i32, %class.svector.4, %class.svector.4, i32, [4 x i8], %class.u_map, %class.u_map, %class.u_map, i32, %class.svector.10, %class.symbol, %class.symbol, %class.symbol, %class.svector.12 }
%class.arith_util = type { ptr, ptr }
%class.bv_util = type { %class.bv_recognizers, ptr, ptr }
%class.bv_recognizers = type { i32 }
%class.array_util = type { %class.array_recognizers, ptr }
%class.array_recognizers = type { i32 }
%class.fpa_util = type { ptr, ptr, i32, %class.arith_util, %class.bv_util }
%class.seq_util = type { ptr, ptr, ptr, i32, [4 x i8], %"class.seq_util::str", %"class.seq_util::rex" }
%"class.seq_util::str" = type <{ ptr, ptr, i32, [4 x i8] }>
%"class.seq_util::rex" = type { ptr, ptr, i32, %class.vector.6, %class.ref_vector, %"struct.seq_util::rex::info", %"struct.seq_util::rex::info" }
%class.vector.6 = type { ptr }
%"struct.seq_util::rex::info" = type { i32, i8, i32, i32 }
%class.rational = type { %class.mpq }
%class.mpq = type { %class.mpz, %class.mpz }
%class.mpz = type { i32, i8, ptr }
%class.u_map = type { %class.map }
%class.map = type { %class.table2map }
%class.table2map = type { %class.core_hashtable.8 }
%class.core_hashtable.8 = type <{ ptr, i32, i32, i32, [4 x i8] }>
%class.svector.12 = type { %class.vector.13 }
%class.vector.13 = type { ptr }
%class.ptr_vector = type { %class.vector.3 }
%class.vector.3 = type { ptr }
%class.svector.4 = type { %class.vector.5 }
%class.vector.5 = type { ptr }
%class.ref_vector = type { %class.ref_vector_core }
%class.ref_vector_core = type { %class.ref_manager_wrapper, %class.ptr_vector }
%class.ref_manager_wrapper = type { ptr }
%class.obj_mark = type { %struct.default_t2uint, %class.bit_vector }
%struct.default_t2uint = type { i8 }
%class.bit_vector = type { i32, i32, ptr }
%class.svector.10 = type { %class.vector.11 }
%class.vector.11 = type { ptr }
%class.ast_mark = type { ptr, %class.obj_mark, %class.obj_mark.7 }
%class.obj_mark.7 = type { %"struct.ast_mark::decl2uint", %class.bit_vector }
%"struct.ast_mark::decl2uint" = type { i8 }
%"class.std::__cxx11::basic_string" = type { %"struct.std::__cxx11::basic_string<char>::_Alloc_hider", i64, %union.anon }
%"struct.std::__cxx11::basic_string<char>::_Alloc_hider" = type { ptr }
%union.anon = type { i64, [8 x i8] }
%"class.std::allocator.310" = type { i8 }
%class.default_exception = type { %class.z3_exception, %"class.std::__cxx11::basic_string" }
%class.z3_exception = type { ptr }

@_ZTI17default_exception = external constant ptr
@.str.47 = private unnamed_addr constant [121 x i8] c"Benchmark has real variables but it is marked as AUFLIA (arrays, uninterpreted functions and linear integer arithmetic).\00", align 1
@_ZTV17default_exception = external unnamed_addr constant { [6 x ptr] }, align 8
@_ZTV12z3_exception = external unnamed_addr constant { [6 x ptr] }, align 8

; Function Attrs: mustprogress nounwind uwtable
define linkonce_odr hidden void @_ZN12z3_exceptionC2Ev(ptr noundef nonnull align 8 dereferenceable(8) %this) unnamed_addr #4 comdat align 2 {
entry:
  %this.addr = alloca ptr, align 8
  store ptr %this, ptr %this.addr, align 8
  %this1 = load ptr, ptr %this.addr, align 8
  store ptr getelementptr inbounds ({ [6 x ptr] }, ptr @_ZTV12z3_exception, i32 0, i32 0, i32 2), ptr %this1, align 8
  ret void
}

; Function Attrs: mustprogress uwtable
define hidden void @_ZN3smt5setup12setup_AUFLIAEb(ptr noundef nonnull align 8 dereferenceable(33) %this, i1 noundef zeroext %simple_array) #5 align 2 {
entry:
  %this.addr = alloca ptr, align 8
  %simple_array.addr = alloca i8, align 1
  store ptr %this, ptr %this.addr, align 8
  %frombool = zext i1 %simple_array to i8
  store i8 %frombool, ptr %simple_array.addr, align 1
  %this1 = load ptr, ptr %this.addr, align 8
  %m_params = getelementptr inbounds %"class.smt::setup", ptr %this1, i32 0, i32 2
  %0 = load ptr, ptr %m_params, align 8
  %1 = load i8, ptr %simple_array.addr, align 1
  %tobool = trunc i8 %1 to i1
  call void @_ZN10smt_params12setup_AUFLIAEb(ptr noundef nonnull align 8 dereferenceable(800) %0, i1 noundef zeroext %tobool)
  %m_context = getelementptr inbounds %"class.smt::setup", ptr %this1, i32 0, i32 0
  %2 = load ptr, ptr %m_context, align 8
  %call = call noalias noundef ptr @_ZN6memory8allocateEm(i64 noundef 1544)
  %m_context2 = getelementptr inbounds %"class.smt::setup", ptr %this1, i32 0, i32 0
  %3 = load ptr, ptr %m_context2, align 8
  call void @_ZN3smt12theory_arithINS_5i_extEEC1ERNS_7contextE(ptr noundef nonnull align 8 dereferenceable(1544) %call, ptr noundef nonnull align 8 dereferenceable(11616) %3)
  call void @_ZN3smt7context15register_pluginEPNS_6theoryE(ptr noundef nonnull align 8 dereferenceable(11616) %2, ptr noundef %call)
  call void @_ZN3smt5setup12setup_arraysEv(ptr noundef nonnull align 8 dereferenceable(33) %this1)
  ret void
}

; Function Attrs: mustprogress nounwind uwtable
define linkonce_odr hidden void @_ZN17default_exceptionC2EONSt7__cxx1112basic_stringIcSt11char_traitsIcESaIcEEE(ptr noundef nonnull align 8 dereferenceable(40) %this, ptr noundef nonnull align 8 dereferenceable(32) %msg) unnamed_addr #4 comdat align 2 {
entry:
  %this.addr = alloca ptr, align 8
  %msg.addr = alloca ptr, align 8
  store ptr %this, ptr %this.addr, align 8
  store ptr %msg, ptr %msg.addr, align 8
  %this1 = load ptr, ptr %this.addr, align 8
  call void @_ZN12z3_exceptionC2Ev(ptr noundef nonnull align 8 dereferenceable(8) %this1) #3
  store ptr getelementptr inbounds ({ [6 x ptr] }, ptr @_ZTV17default_exception, i32 0, i32 0, i32 2), ptr %this1, align 8
  %m_msg = getelementptr inbounds %class.default_exception, ptr %this1, i32 0, i32 1
  %0 = load ptr, ptr %msg.addr, align 8
  call void @_ZNSt7__cxx1112basic_stringIcSt11char_traitsIcESaIcEEC1EOS4_(ptr noundef nonnull align 8 dereferenceable(32) %m_msg, ptr noundef nonnull align 8 dereferenceable(32) %0) #3
  ret void
}

; Function Attrs: mustprogress uwtable
define hidden void @_ZN3smt5setup12setup_AUFLIAERK15static_features(ptr noundef nonnull align 8 dereferenceable(33) %this, ptr noundef nonnull align 8 dereferenceable(792) %st) #5 align 2 personality ptr @__gxx_personality_v0 {
entry:
  %this.addr = alloca ptr, align 8
  %st.addr = alloca ptr, align 8
  %ref.tmp = alloca %"class.std::__cxx11::basic_string", align 8
  %ref.tmp2 = alloca %"class.std::allocator.310", align 1
  %exn.slot = alloca ptr, align 8
  %ehselector.slot = alloca i32, align 4
  %cleanup.isactive = alloca i1, align 1
  store ptr %this, ptr %this.addr, align 8
  store ptr %st, ptr %st.addr, align 8
  %this1 = load ptr, ptr %this.addr, align 8
  %0 = load ptr, ptr %st.addr, align 8
  %m_has_real = getelementptr inbounds %struct.static_features, ptr %0, i32 0, i32 44
  %1 = load i8, ptr %m_has_real, align 2
  %tobool = trunc i8 %1 to i1
  br i1 %tobool, label %if.then, label %if.end

if.then:                                          ; preds = %entry
  store i1 true, ptr %cleanup.isactive, align 1
  %exception = call ptr @__cxa_allocate_exception(i64 40) #3
  call void @_ZNSaIcEC1Ev(ptr noundef nonnull align 1 dereferenceable(1) %ref.tmp2) #3
  invoke void @_ZNSt7__cxx1112basic_stringIcSt11char_traitsIcESaIcEEC2IS3_EEPKcRKS3_(ptr noundef nonnull align 8 dereferenceable(32) %ref.tmp, ptr noundef @.str.47, ptr noundef nonnull align 1 dereferenceable(1) %ref.tmp2)
          to label %invoke.cont unwind label %lpad

invoke.cont:                                      ; preds = %if.then
  invoke void @_ZN17default_exceptionC2EONSt7__cxx1112basic_stringIcSt11char_traitsIcESaIcEEE(ptr noundef nonnull align 8 dereferenceable(40) %exception, ptr noundef nonnull align 8 dereferenceable(32) %ref.tmp)
          to label %invoke.cont4 unwind label %lpad3

invoke.cont4:                                     ; preds = %invoke.cont
  store i1 false, ptr %cleanup.isactive, align 1
  invoke void @__cxa_throw(ptr %exception, ptr @_ZTI17default_exception, ptr @_ZN17default_exceptionD2Ev) #15
          to label %unreachable unwind label %lpad3

lpad:                                             ; preds = %if.then
  %2 = landingpad { ptr, i32 }
          cleanup
  %3 = extractvalue { ptr, i32 } %2, 0
  store ptr %3, ptr %exn.slot, align 8
  %4 = extractvalue { ptr, i32 } %2, 1
  store i32 %4, ptr %ehselector.slot, align 4
  br label %ehcleanup

lpad3:                                            ; preds = %invoke.cont4, %invoke.cont
  %5 = landingpad { ptr, i32 }
          cleanup
  %6 = extractvalue { ptr, i32 } %5, 0
  store ptr %6, ptr %exn.slot, align 8
  %7 = extractvalue { ptr, i32 } %5, 1
  store i32 %7, ptr %ehselector.slot, align 4
  call void @_ZNSt7__cxx1112basic_stringIcSt11char_traitsIcESaIcEED1Ev(ptr noundef nonnull align 8 dereferenceable(32) %ref.tmp) #3
  br label %ehcleanup

ehcleanup:                                        ; preds = %lpad3, %lpad
  call void @_ZNSaIcED1Ev(ptr noundef nonnull align 1 dereferenceable(1) %ref.tmp2) #3
  %cleanup.is_active = load i1, ptr %cleanup.isactive, align 1
  br i1 %cleanup.is_active, label %cleanup.action, label %cleanup.done

cleanup.action:                                   ; preds = %ehcleanup
  call void @__cxa_free_exception(ptr %exception) #3
  br label %cleanup.done

cleanup.done:                                     ; preds = %cleanup.action, %ehcleanup
  br label %eh.resume

if.end:                                           ; preds = %entry
  %m_params = getelementptr inbounds %"class.smt::setup", ptr %this1, i32 0, i32 2
  %8 = load ptr, ptr %m_params, align 8
  %9 = load ptr, ptr %st.addr, align 8
  call void @_ZN10smt_params12setup_AUFLIAERK15static_features(ptr noundef nonnull align 8 dereferenceable(800) %8, ptr noundef nonnull align 8 dereferenceable(792) %9)
  call void @_ZN3smt5setup12setup_AUFLIAEb(ptr noundef nonnull align 8 dereferenceable(33) %this1, i1 noundef zeroext true)
  ret void

eh.resume:                                        ; preds = %cleanup.done
  %exn = load ptr, ptr %exn.slot, align 8
  %sel = load i32, ptr %ehselector.slot, align 4
  %lpad.val = insertvalue { ptr, i32 } poison, ptr %exn, 0
  %lpad.val6 = insertvalue { ptr, i32 } %lpad.val, i32 %sel, 1
  resume { ptr, i32 } %lpad.val6

unreachable:                                      ; preds = %invoke.cont4
  unreachable
}